; Function Attrs: mustprogress uwtable
define noundef zeroext range(i8 1, 3) i8 @_ZN6duckdb8EnumUtil10FromStringINS_14ParquetVersionEEET_PKc(ptr noundef %0) local_unnamed_addr #3 align 2 personality ptr @__gxx_personality_v0 {
  %2 = alloca %"class.std::__cxx11::basic_string", align 8
  %3 = alloca %"class.std::__cxx11::basic_string", align 8
  %4 = alloca %"class.std::allocator.76", align 1
  %5 = icmp eq ptr %0, @.str.39
  br i1 %5, label %_ZN6duckdb10StringUtil6EqualsEPKcS2_.exit.thread, label %6

6:                                                ; preds = %1
  %7 = icmp eq ptr %0, null
  br i1 %7, label %_ZN6duckdb10StringUtil6EqualsEPKcS2_.exit14.thread23, label %sub_0

sub_0:                                            ; preds = %6
  %8 = load i8, ptr %0, align 1
  %.not = icmp eq i8 %8, 86
  br i1 %.not, label %sub_1, label %_ZN6duckdb10StringUtil6EqualsEPKcS2_.exit.tail.thread.thread

sub_1:                                            ; preds = %sub_0
  %9 = getelementptr inbounds nuw i8, ptr %0, i64 1
  %10 = load i8, ptr %9, align 1
  %.not44 = icmp eq i8 %10, 49
  br i1 %.not44, label %_ZN6duckdb10StringUtil6EqualsEPKcS2_.exit.tail, label %_ZN6duckdb10StringUtil6EqualsEPKcS2_.exit.tail.thread

_ZN6duckdb10StringUtil6EqualsEPKcS2_.exit.tail:   ; preds = %sub_1
  %11 = getelementptr inbounds nuw i8, ptr %0, i64 2
  %12 = load i8, ptr %11, align 1
  %13 = icmp eq i8 %12, 0
  br i1 %13, label %_ZN6duckdb10StringUtil6EqualsEPKcS2_.exit.thread, label %.thread

_ZN6duckdb10StringUtil6EqualsEPKcS2_.exit.tail.thread: ; preds = %sub_1
  %14 = icmp eq ptr %0, @.str.40
  br i1 %14, label %_ZN6duckdb10StringUtil6EqualsEPKcS2_.exit.thread, label %sub_141

_ZN6duckdb10StringUtil6EqualsEPKcS2_.exit.tail.thread.thread: ; preds = %sub_0
  %15 = icmp eq ptr %0, @.str.40
  br i1 %15, label %_ZN6duckdb10StringUtil6EqualsEPKcS2_.exit.thread, label %_ZN6duckdb10StringUtil6EqualsEPKcS2_.exit14.thread23

.thread:                                          ; preds = %_ZN6duckdb10StringUtil6EqualsEPKcS2_.exit.tail
  %16 = icmp eq ptr %0, @.str.40
  br i1 %16, label %_ZN6duckdb10StringUtil6EqualsEPKcS2_.exit.thread, label %sub_141

sub_141:                                          ; preds = %_ZN6duckdb10StringUtil6EqualsEPKcS2_.exit.tail.thread, %.thread
  %17 = getelementptr inbounds nuw i8, ptr %0, i64 1
  %18 = load i8, ptr %17, align 1
  %.not46 = icmp eq i8 %18, 50
  br i1 %.not46, label %_ZN6duckdb10StringUtil6EqualsEPKcS2_.exit14.tail, label %_ZN6duckdb10StringUtil6EqualsEPKcS2_.exit14.thread23

_ZN6duckdb10StringUtil6EqualsEPKcS2_.exit14.tail: ; preds = %sub_141
  %19 = getelementptr inbounds nuw i8, ptr %0, i64 2
  %20 = load i8, ptr %19, align 1
  %21 = icmp eq i8 %20, 0
  br i1 %21, label %_ZN6duckdb10StringUtil6EqualsEPKcS2_.exit.thread, label %_ZN6duckdb10StringUtil6EqualsEPKcS2_.exit14.thread23

_ZN6duckdb10StringUtil6EqualsEPKcS2_.exit14.thread23: ; preds = %_ZN6duckdb10StringUtil6EqualsEPKcS2_.exit.tail.thread.thread, %sub_141, %6, %_ZN6duckdb10StringUtil6EqualsEPKcS2_.exit14.tail
  %22 = tail call ptr @__cxa_allocate_exception(i64 16) #27
  call void @llvm.lifetime.start.p0(i64 32, ptr nonnull %2) #27
  call void @llvm.lifetime.start.p0(i64 1, ptr nonnull %4) #27
  invoke void @_ZNSt7__cxx1112basic_stringIcSt11char_traitsIcESaIcEEC2EPKcRKS3_(ptr noundef nonnull align 8 dereferenceable(32) %3, ptr noundef nonnull @.str.53, ptr noundef nonnull align 1 dereferenceable(1) %4)
          to label %23 unwind label %_ZNSt7__cxx1112basic_stringIcSt11char_traitsIcESaIcEED2Ev.exit17.thread

23:                                               ; preds = %_ZN6duckdb10StringUtil6EqualsEPKcS2_.exit14.thread23
  invoke void @_ZN6duckdb10StringUtil6FormatIJPKcEEENSt7__cxx1112basic_stringIcSt11char_traitsIcESaIcEEES9_DpT_(ptr dead_on_unwind nonnull writable sret(%"class.std::__cxx11::basic_string") align 8 %2, ptr noundef nonnull %3, ptr noundef %0)
          to label %24 unwind label %_ZNSt7__cxx1112basic_stringIcSt11char_traitsIcESaIcEED2Ev.exit.thread

24:                                               ; preds = %23
  invoke void @_ZN6duckdb23NotImplementedExceptionC1ERKNSt7__cxx1112basic_stringIcSt11char_traitsIcESaIcEEE(ptr noundef nonnull align 8 dereferenceable(16) %22, ptr noundef nonnull align 8 dereferenceable(32) %2)
          to label %25 unwind label %27

25:                                               ; preds = %24
  invoke void @__cxa_throw(ptr nonnull %22, ptr nonnull @_ZTIN6duckdb23NotImplementedExceptionE, ptr nonnull @_ZNSt13runtime_errorD2Ev) #29
          to label %50 unwind label %27

_ZNSt7__cxx1112basic_stringIcSt11char_traitsIcESaIcEED2Ev.exit17.thread: ; preds = %_ZN6duckdb10StringUtil6EqualsEPKcS2_.exit14.thread23
  %26 = landingpad { ptr, i32 }
          cleanup
  br label %.sink.split

27:                                               ; preds = %25, %24
  %.0 = phi i1 [ false, %25 ], [ true, %24 ]
  %28 = landingpad { ptr, i32 }
          cleanup
  %29 = load ptr, ptr %2, align 8, !tbaa !26
  %30 = getelementptr inbounds nuw i8, ptr %2, i64 16
  %31 = icmp eq ptr %29, %30
  br i1 %31, label %_ZNKSt7__cxx1112basic_stringIcSt11char_traitsIcESaIcEE11_M_is_localEv.exit.thread.i.i, label %_ZNKSt7__cxx1112basic_stringIcSt11char_traitsIcESaIcEE11_M_is_localEv.exit.i.i

_ZNKSt7__cxx1112basic_stringIcSt11char_traitsIcESaIcEE11_M_is_localEv.exit.thread.i.i: ; preds = %27
  %32 = getelementptr inbounds nuw i8, ptr %2, i64 8
  %33 = load i64, ptr %32, align 8, !tbaa !30
  %34 = icmp ult i64 %33, 16
  call void @llvm.assume(i1 %34)
  br label %_ZNSt7__cxx1112basic_stringIcSt11char_traitsIcESaIcEED2Ev.exit

_ZNKSt7__cxx1112basic_stringIcSt11char_traitsIcESaIcEE11_M_is_localEv.exit.i.i: ; preds = %27
  call void @_ZdlPv(ptr noundef %29) #28
  br label %_ZNSt7__cxx1112basic_stringIcSt11char_traitsIcESaIcEED2Ev.exit

_ZNSt7__cxx1112basic_stringIcSt11char_traitsIcESaIcEED2Ev.exit: ; preds = %_ZNKSt7__cxx1112basic_stringIcSt11char_traitsIcESaIcEE11_M_is_localEv.exit.i.i, %_ZNKSt7__cxx1112basic_stringIcSt11char_traitsIcESaIcEE11_M_is_localEv.exit.thread.i.i
  %35 = load ptr, ptr %3, align 8, !tbaa !26
  %36 = getelementptr inbounds nuw i8, ptr %3, i64 16
  %37 = icmp eq ptr %35, %36
  br i1 %37, label %_ZNKSt7__cxx1112basic_stringIcSt11char_traitsIcESaIcEE11_M_is_localEv.exit.thread.i.i16, label %_ZNSt7__cxx1112basic_stringIcSt11char_traitsIcESaIcEED2Ev.exit17

_ZNSt7__cxx1112basic_stringIcSt11char_traitsIcESaIcEED2Ev.exit.thread: ; preds = %23
  %38 = landingpad { ptr, i32 }
          cleanup
  %39 = load ptr, ptr %3, align 8, !tbaa !26
  %40 = getelementptr inbounds nuw i8, ptr %3, i64 16
  %41 = icmp eq ptr %39, %40
  br i1 %41, label %_ZNKSt7__cxx1112basic_stringIcSt11char_traitsIcESaIcEE11_M_is_localEv.exit.thread.i.i16.thread, label %_ZNSt7__cxx1112basic_stringIcSt11char_traitsIcESaIcEED2Ev.exit17.thread35

_ZNKSt7__cxx1112basic_stringIcSt11char_traitsIcESaIcEE11_M_is_localEv.exit.thread.i.i16.thread: ; preds = %_ZNSt7__cxx1112basic_stringIcSt11char_traitsIcESaIcEED2Ev.exit.thread
  %42 = getelementptr inbounds nuw i8, ptr %3, i64 8
  %43 = load i64, ptr %42, align 8, !tbaa !30
  %44 = icmp ult i64 %43, 16
  call void @llvm.assume(i1 %44)
  br label %.sink.split

_ZNSt7__cxx1112basic_stringIcSt11char_traitsIcESaIcEED2Ev.exit17.thread35: ; preds = %_ZNSt7__cxx1112basic_stringIcSt11char_traitsIcESaIcEED2Ev.exit.thread
  call void @_ZdlPv(ptr noundef %39) #28
  br label %.sink.split

_ZNKSt7__cxx1112basic_stringIcSt11char_traitsIcESaIcEE11_M_is_localEv.exit.thread.i.i16: ; preds = %_ZNSt7__cxx1112basic_stringIcSt11char_traitsIcESaIcEED2Ev.exit
  %45 = getelementptr inbounds nuw i8, ptr %3, i64 8
  %46 = load i64, ptr %45, align 8, !tbaa !30
  %47 = icmp ult i64 %46, 16
  call void @llvm.assume(i1 %47)
  call void @llvm.lifetime.end.p0(i64 1, ptr nonnull %4) #27
  call void @llvm.lifetime.end.p0(i64 32, ptr nonnull %2) #27
  br i1 %.0, label %48, label %49

_ZNSt7__cxx1112basic_stringIcSt11char_traitsIcESaIcEED2Ev.exit17: ; preds = %_ZNSt7__cxx1112basic_stringIcSt11char_traitsIcESaIcEED2Ev.exit
  call void @_ZdlPv(ptr noundef %35) #28
  call void @llvm.lifetime.end.p0(i64 1, ptr nonnull %4) #27
  call void @llvm.lifetime.end.p0(i64 32, ptr nonnull %2) #27
  br i1 %.0, label %48, label %49

.sink.split:                                      ; preds = %_ZNSt7__cxx1112basic_stringIcSt11char_traitsIcESaIcEED2Ev.exit17.thread, %_ZNSt7__cxx1112basic_stringIcSt11char_traitsIcESaIcEED2Ev.exit17.thread35, %_ZNKSt7__cxx1112basic_stringIcSt11char_traitsIcESaIcEE11_M_is_localEv.exit.thread.i.i16.thread
  %.pn.pn28.ph = phi { ptr, i32 } [ %38, %_ZNKSt7__cxx1112basic_stringIcSt11char_traitsIcESaIcEE11_M_is_localEv.exit.thread.i.i16.thread ], [ %38, %_ZNSt7__cxx1112basic_stringIcSt11char_traitsIcESaIcEED2Ev.exit17.thread35 ], [ %26, %_ZNSt7__cxx1112basic_stringIcSt11char_traitsIcESaIcEED2Ev.exit17.thread ]
  call void @llvm.lifetime.end.p0(i64 1, ptr nonnull %4) #27
  call void @llvm.lifetime.end.p0(i64 32, ptr nonnull %2) #27
  br label %48

48:                                               ; preds = %.sink.split, %_ZNKSt7__cxx1112basic_stringIcSt11char_traitsIcESaIcEE11_M_is_localEv.exit.thread.i.i16, %_ZNSt7__cxx1112basic_stringIcSt11char_traitsIcESaIcEED2Ev.exit17
  %.pn.pn28 = phi { ptr, i32 } [ %28, %_ZNSt7__cxx1112basic_stringIcSt11char_traitsIcESaIcEED2Ev.exit17 ], [ %28, %_ZNKSt7__cxx1112basic_stringIcSt11char_traitsIcESaIcEE11_M_is_localEv.exit.thread.i.i16 ], [ %.pn.pn28.ph, %.sink.split ]
  call void @__cxa_free_exception(ptr %22) #27
  br label %49

_ZN6duckdb10StringUtil6EqualsEPKcS2_.exit.thread: ; preds = %_ZN6duckdb10StringUtil6EqualsEPKcS2_.exit.tail.thread.thread, %.thread, %_ZN6duckdb10StringUtil6EqualsEPKcS2_.exit.tail.thread, %1, %_ZN6duckdb10StringUtil6EqualsEPKcS2_.exit14.tail, %_ZN6duckdb10StringUtil6EqualsEPKcS2_.exit.tail
  %.010 = phi i8 [ 1, %_ZN6duckdb10StringUtil6EqualsEPKcS2_.exit.tail ], [ 2, %_ZN6duckdb10StringUtil6EqualsEPKcS2_.exit14.tail ], [ 1, %1 ], [ 2, %_ZN6duckdb10StringUtil6EqualsEPKcS2_.exit.tail.thread ], [ 2, %.thread ], [ 2, %_ZN6duckdb10StringUtil6EqualsEPKcS2_.exit.tail.thread.thread ]
  ret i8 %.010

49:                                               ; preds = %_ZNKSt7__cxx1112basic_stringIcSt11char_traitsIcESaIcEE11_M_is_localEv.exit.thread.i.i16, %_ZNSt7__cxx1112basic_stringIcSt11char_traitsIcESaIcEED2Ev.exit17, %48
  %.pn.pn27 = phi { ptr, i32 } [ %28, %_ZNSt7__cxx1112basic_stringIcSt11char_traitsIcESaIcEED2Ev.exit17 ], [ %.pn.pn28, %48 ], [ %28, %_ZNKSt7__cxx1112basic_stringIcSt11char_traitsIcESaIcEE11_M_is_localEv.exit.thread.i.i16 ]
  resume { ptr, i32 } %.pn.pn27

50:                                               ; preds = %25
  unreachable
}